; ModuleID = '55/1463.c'
source_filename = "55/1463.c"
target datalayout = "e-m:e-p270:32:32-p271:32:32-p272:64:64-i64:64-f80:128-n8:16:32:64-S128"
target triple = "x86_64-pc-linux-gnu"

@.str = private unnamed_addr constant [9 x i8] c"%d %s %d\00", align 1
@.str.1 = private unnamed_addr constant [2 x i8] c"0\00", align 1
@.str.2 = private unnamed_addr constant [3 x i8] c"%c\00", align 1

; Function Attrs: noinline nounwind uwtable
define dso_local i32 @main() #0 {
  %1 = alloca i32, align 4
  %2 = alloca i32, align 4
  %3 = alloca i32, align 4
  %4 = alloca i32, align 4
  %5 = alloca i32, align 4
  %6 = alloca i32, align 4
  %7 = alloca [10000 x i32], align 16
  %8 = alloca [10000 x i8], align 16
  store i32 0, i32* %1, align 4
  %9 = getelementptr inbounds [10000 x i8], [10000 x i8]* %8, i64 0, i64 0
  %10 = call i32 (i8*, ...) @__isoc99_scanf(i8* getelementptr inbounds ([9 x i8], [9 x i8]* @.str, i64 0, i64 0), i32* %4, i8* %9, i32* %5)
  store i32 0, i32* %6, align 4
  %11 = getelementptr inbounds [10000 x i8], [10000 x i8]* %8, i64 0, i64 0
  %12 = load i8, i8* %11, align 16
  %13 = sext i8 %12 to i32
  %14 = sub nsw i32 %13, 48
  %15 = icmp eq i32 %14, 0
  br i1 %15, label %16, label %18

16:                                               ; preds = %0
  %17 = call i32 (i8*, ...) @printf(i8* getelementptr inbounds ([2 x i8], [2 x i8]* @.str.1, i64 0, i64 0))
  br label %167

18:                                               ; preds = %0
  store i32 0, i32* %2, align 4
  br label %19

19:                                               ; preds = %86, %18
  %20 = load i32, i32* %2, align 4
  %21 = sext i32 %20 to i64
  %22 = getelementptr inbounds [10000 x i8], [10000 x i8]* %8, i64 0, i64 %21
  %23 = load i8, i8* %22, align 1
  %24 = sext i8 %23 to i32
  %25 = icmp ne i32 %24, 0
  br i1 %25, label %26, label %89

26:                                               ; preds = %19
  %27 = load i32, i32* %2, align 4
  %28 = sext i32 %27 to i64
  %29 = getelementptr inbounds [10000 x i8], [10000 x i8]* %8, i64 0, i64 %28
  %30 = load i8, i8* %29, align 1
  %31 = sext i8 %30 to i32
  %32 = icmp sge i32 %31, 97
  br i1 %32, label %33, label %51

33:                                               ; preds = %26
  %34 = load i32, i32* %2, align 4
  %35 = sext i32 %34 to i64
  %36 = getelementptr inbounds [10000 x i8], [10000 x i8]* %8, i64 0, i64 %35
  %37 = load i8, i8* %36, align 1
  %38 = sext i8 %37 to i32
  %39 = icmp sle i32 %38, 122
  br i1 %39, label %40, label %51

40:                                               ; preds = %33
  %41 = load i32, i32* %2, align 4
  %42 = sext i32 %41 to i64
  %43 = getelementptr inbounds [10000 x i8], [10000 x i8]* %8, i64 0, i64 %42
  %44 = load i8, i8* %43, align 1
  %45 = sext i8 %44 to i32
  %46 = sub nsw i32 %45, 32
  %47 = trunc i32 %46 to i8
  %48 = load i32, i32* %2, align 4
  %49 = sext i32 %48 to i64
  %50 = getelementptr inbounds [10000 x i8], [10000 x i8]* %8, i64 0, i64 %49
  store i8 %47, i8* %50, align 1
  br label %51

51:                                               ; preds = %40, %33, %26
  %52 = load i32, i32* %2, align 4
  %53 = sext i32 %52 to i64
  %54 = getelementptr inbounds [10000 x i8], [10000 x i8]* %8, i64 0, i64 %53
  %55 = load i8, i8* %54, align 1
  %56 = sext i8 %55 to i32
  %57 = icmp sge i32 %56, 65
  br i1 %57, label %58, label %75

58:                                               ; preds = %51
  %59 = load i32, i32* %2, align 4
  %60 = sext i32 %59 to i64
  %61 = getelementptr inbounds [10000 x i8], [10000 x i8]* %8, i64 0, i64 %60
  %62 = load i8, i8* %61, align 1
  %63 = sext i8 %62 to i32
  %64 = icmp sle i32 %63, 90
  br i1 %64, label %65, label %75

65:                                               ; preds = %58
  %66 = load i32, i32* %2, align 4
  %67 = sext i32 %66 to i64
  %68 = getelementptr inbounds [10000 x i8], [10000 x i8]* %8, i64 0, i64 %67
  %69 = load i8, i8* %68, align 1
  %70 = sext i8 %69 to i32
  %71 = sub nsw i32 %70, 55
  %72 = load i32, i32* %2, align 4
  %73 = sext i32 %72 to i64
  %74 = getelementptr inbounds [10000 x i32], [10000 x i32]* %7, i64 0, i64 %73
  store i32 %71, i32* %74, align 4
  br label %85

75:                                               ; preds = %58, %51
  %76 = load i32, i32* %2, align 4
  %77 = sext i32 %76 to i64
  %78 = getelementptr inbounds [10000 x i8], [10000 x i8]* %8, i64 0, i64 %77
  %79 = load i8, i8* %78, align 1
  %80 = sext i8 %79 to i32
  %81 = sub nsw i32 %80, 48
  %82 = load i32, i32* %2, align 4
  %83 = sext i32 %82 to i64
  %84 = getelementptr inbounds [10000 x i32], [10000 x i32]* %7, i64 0, i64 %83
  store i32 %81, i32* %84, align 4
  br label %85

85:                                               ; preds = %75, %65
  br label %86

86:                                               ; preds = %85
  %87 = load i32, i32* %2, align 4
  %88 = add nsw i32 %87, 1
  store i32 %88, i32* %2, align 4
  br label %19

89:                                               ; preds = %19
  store i32 0, i32* %3, align 4
  br label %90

90:                                               ; preds = %103, %89
  %91 = load i32, i32* %3, align 4
  %92 = load i32, i32* %2, align 4
  %93 = icmp slt i32 %91, %92
  br i1 %93, label %94, label %106

94:                                               ; preds = %90
  %95 = load i32, i32* %4, align 4
  %96 = load i32, i32* %6, align 4
  %97 = mul nsw i32 %95, %96
  %98 = load i32, i32* %3, align 4
  %99 = sext i32 %98 to i64
  %100 = getelementptr inbounds [10000 x i32], [10000 x i32]* %7, i64 0, i64 %99
  %101 = load i32, i32* %100, align 4
  %102 = add nsw i32 %97, %101
  store i32 %102, i32* %6, align 4
  br label %103

103:                                              ; preds = %94
  %104 = load i32, i32* %3, align 4
  %105 = add nsw i32 %104, 1
  store i32 %105, i32* %3, align 4
  br label %90

106:                                              ; preds = %90
  store i32 0, i32* %2, align 4
  br label %107

107:                                              ; preds = %147, %106
  %108 = load i32, i32* %6, align 4
  %109 = icmp ne i32 %108, 0
  br i1 %109, label %110, label %150

110:                                              ; preds = %107
  %111 = load i32, i32* %6, align 4
  %112 = load i32, i32* %5, align 4
  %113 = srem i32 %111, %112
  %114 = load i32, i32* %2, align 4
  %115 = sext i32 %114 to i64
  %116 = getelementptr inbounds [10000 x i32], [10000 x i32]* %7, i64 0, i64 %115
  store i32 %113, i32* %116, align 4
  %117 = load i32, i32* %6, align 4
  %118 = load i32, i32* %5, align 4
  %119 = sdiv i32 %117, %118
  store i32 %119, i32* %6, align 4
  %120 = load i32, i32* %2, align 4
  %121 = sext i32 %120 to i64
  %122 = getelementptr inbounds [10000 x i32], [10000 x i32]* %7, i64 0, i64 %121
  %123 = load i32, i32* %122, align 4
  %124 = icmp sge i32 %123, 10
  br i1 %124, label %125, label %136

125:                                              ; preds = %110
  %126 = load i32, i32* %2, align 4
  %127 = sext i32 %126 to i64
  %128 = getelementptr inbounds [10000 x i32], [10000 x i32]* %7, i64 0, i64 %127
  %129 = load i32, i32* %128, align 4
  %130 = add nsw i32 65, %129
  %131 = sub nsw i32 %130, 10
  %132 = trunc i32 %131 to i8
  %133 = load i32, i32* %2, align 4
  %134 = sext i32 %133 to i64
  %135 = getelementptr inbounds [10000 x i8], [10000 x i8]* %8, i64 0, i64 %134
  store i8 %132, i8* %135, align 1
  br label %146

136:                                              ; preds = %110
  %137 = load i32, i32* %2, align 4
  %138 = sext i32 %137 to i64
  %139 = getelementptr inbounds [10000 x i32], [10000 x i32]* %7, i64 0, i64 %138
  %140 = load i32, i32* %139, align 4
  %141 = add nsw i32 %140, 48
  %142 = trunc i32 %141 to i8
  %143 = load i32, i32* %2, align 4
  %144 = sext i32 %143 to i64
  %145 = getelementptr inbounds [10000 x i8], [10000 x i8]* %8, i64 0, i64 %144
  store i8 %142, i8* %145, align 1
  br label %146

146:                                              ; preds = %136, %125
  br label %147

147:                                              ; preds = %146
  %148 = load i32, i32* %2, align 4
  %149 = add nsw i32 %148, 1
  store i32 %149, i32* %2, align 4
  br label %107

150:                                              ; preds = %107
  %151 = load i32, i32* %2, align 4
  %152 = sub nsw i32 %151, 1
  store i32 %152, i32* %3, align 4
  br label %153

153:                                              ; preds = %163, %150
  %154 = load i32, i32* %3, align 4
  %155 = icmp sge i32 %154, 0
  br i1 %155, label %156, label %166

156:                                              ; preds = %153
  %157 = load i32, i32* %3, align 4
  %158 = sext i32 %157 to i64
  %159 = getelementptr inbounds [10000 x i8], [10000 x i8]* %8, i64 0, i64 %158
  %160 = load i8, i8* %159, align 1
  %161 = sext i8 %160 to i32
  %162 = call i32 (i8*, ...) @printf(i8* getelementptr inbounds ([3 x i8], [3 x i8]* @.str.2, i64 0, i64 0), i32 %161)
  br label %163

163:                                              ; preds = %156
  %164 = load i32, i32* %3, align 4
  %165 = add nsw i32 %164, -1
  store i32 %165, i32* %3, align 4
  br label %153

166:                                              ; preds = %153
  br label %167

167:                                              ; preds = %166, %16
  %168 = call i32 @getchar()
  %169 = call i32 @getchar()
  %170 = call i32 @getchar()
  %171 = load i32, i32* %1, align 4
  ret i32 %171
}

declare dso_local i32 @__isoc99_scanf(i8*, ...) #1

declare dso_local i32 @printf(i8*, ...) #1

declare dso_local i32 @getchar() #1


!llvm.module.flags = !{!0}
!llvm.ident = !{!1}

!0 = !{i32 1, !"wchar_size", i32 4}
!1 = !{!"clang version 10.0.0-4ubuntu1 "}
